; Function Attrs: mustprogress uwtable
define hidden void @_ZN7datalog13mk_magic_sets9adornment8populateEP3appRK8uint_set(ptr noundef nonnull align 8 dereferenceable(8) %this, ptr nocapture noundef readonly %lit, ptr nocapture noundef nonnull readonly align 8 dereferenceable(8) %bound_vars) local_unnamed_addr #3 align 2 {
entry:
  %m_num_args.i = getelementptr inbounds i8, ptr %lit, i64 24
  %0 = load i32, ptr %m_num_args.i, align 8
  %cmp8.not = icmp eq i32 %0, 0
  br i1 %cmp8.not, label %for.end, label %for.body.lr.ph

for.body.lr.ph:                                   ; preds = %entry
  %m_args.i = getelementptr inbounds i8, ptr %lit, i64 32
  %wide.trip.count = zext i32 %0 to i64
  br label %for.body

for.body:                                         ; preds = %for.body.lr.ph, %_ZN6vectorIN7datalog13mk_magic_sets6a_flagELb0EjE9push_backEOS2_.exit
  %indvars.iv = phi i64 [ 0, %for.body.lr.ph ], [ %indvars.iv.next, %_ZN6vectorIN7datalog13mk_magic_sets6a_flagELb0EjE9push_backEOS2_.exit ]
  %arrayidx.i = getelementptr inbounds [0 x ptr], ptr %m_args.i, i64 0, i64 %indvars.iv
  %1 = load ptr, ptr %arrayidx.i, align 8
  %m_kind.i.i = getelementptr inbounds i8, ptr %1, i64 4
  %bf.load.i.i = load i32, ptr %m_kind.i.i, align 4
  %bf.clear.i.i = and i32 %bf.load.i.i, 65535
  %cmp.i = icmp eq i32 %bf.clear.i.i, 1
  br i1 %cmp.i, label %lor.rhs, label %lor.end

lor.rhs:                                          ; preds = %for.body
  %m_idx.i = getelementptr inbounds i8, ptr %1, i64 16
  %2 = load i32, ptr %m_idx.i, align 8
  %shr.i = lshr i32 %2, 5
  %3 = load ptr, ptr %bound_vars, align 8
  %cmp.i.i = icmp eq ptr %3, null
  br i1 %cmp.i.i, label %lor.end, label %_ZNK6vectorIjLb0EjE4sizeEv.exit.i

_ZNK6vectorIjLb0EjE4sizeEv.exit.i:                ; preds = %lor.rhs
  %arrayidx.i.i = getelementptr inbounds i8, ptr %3, i64 -4
  %4 = load i32, ptr %arrayidx.i.i, align 4
  %cmp.i5 = icmp ult i32 %shr.i, %4
  br i1 %cmp.i5, label %land.rhs.i, label %lor.end

land.rhs.i:                                       ; preds = %_ZNK6vectorIjLb0EjE4sizeEv.exit.i
  %idxprom.i.i = zext nneg i32 %shr.i to i64
  %arrayidx.i3.i = getelementptr inbounds i32, ptr %3, i64 %idxprom.i.i
  %5 = load i32, ptr %arrayidx.i3.i, align 4
  %and.i = and i32 %2, 31
  %shl.i = shl nuw i32 1, %and.i
  %and3.i = and i32 %5, %shl.i
  %cmp4.i = icmp ne i32 %and3.i, 0
  br label %lor.end

lor.end:                                          ; preds = %land.rhs.i, %_ZNK6vectorIjLb0EjE4sizeEv.exit.i, %lor.rhs, %for.body
  %6 = phi i1 [ true, %for.body ], [ false, %_ZNK6vectorIjLb0EjE4sizeEv.exit.i ], [ %cmp4.i, %land.rhs.i ], [ false, %lor.rhs ]
  %cond = zext i1 %6 to i32
  %7 = load ptr, ptr %this, align 8
  %cmp.i6 = icmp eq ptr %7, null
  br i1 %cmp.i6, label %if.then.i, label %lor.lhs.false.i

lor.lhs.false.i:                                  ; preds = %lor.end
  %arrayidx.i7 = getelementptr inbounds i8, ptr %7, i64 -4
  %8 = load i32, ptr %arrayidx.i7, align 4
  %arrayidx4.i = getelementptr inbounds i8, ptr %7, i64 -8
  %9 = load i32, ptr %arrayidx4.i, align 4
  %cmp5.i = icmp eq i32 %8, %9
  br i1 %cmp5.i, label %if.then.i, label %_ZN6vectorIN7datalog13mk_magic_sets6a_flagELb0EjE9push_backEOS2_.exit

if.then.i:                                        ; preds = %lor.lhs.false.i, %lor.end
  tail call void @_ZN6vectorIN7datalog13mk_magic_sets6a_flagELb0EjE13expand_vectorEv(ptr noundef nonnull align 8 dereferenceable(8) %this)
  %.pre.i = load ptr, ptr %this, align 8
  %arrayidx8.phi.trans.insert.i = getelementptr inbounds i8, ptr %.pre.i, i64 -4
  %.pre1.i = load i32, ptr %arrayidx8.phi.trans.insert.i, align 4
  br label %_ZN6vectorIN7datalog13mk_magic_sets6a_flagELb0EjE9push_backEOS2_.exit

_ZN6vectorIN7datalog13mk_magic_sets6a_flagELb0EjE9push_backEOS2_.exit: ; preds = %lor.lhs.false.i, %if.then.i
  %10 = phi i32 [ %.pre1.i, %if.then.i ], [ %8, %lor.lhs.false.i ]
  %11 = phi ptr [ %.pre.i, %if.then.i ], [ %7, %lor.lhs.false.i ]
  %idx.ext.i = zext i32 %10 to i64
  %add.ptr.i = getelementptr inbounds i32, ptr %11, i64 %idx.ext.i
  store i32 %cond, ptr %add.ptr.i, align 4
  %12 = load ptr, ptr %this, align 8
  %arrayidx10.i = getelementptr inbounds i8, ptr %12, i64 -4
  %13 = load i32, ptr %arrayidx10.i, align 4
  %inc.i = add i32 %13, 1
  store i32 %inc.i, ptr %arrayidx10.i, align 4
  %indvars.iv.next = add nuw nsw i64 %indvars.iv, 1
  %exitcond.not = icmp eq i64 %indvars.iv.next, %wide.trip.count
  br i1 %exitcond.not, label %for.end, label %for.body, !llvm.loop !11

for.end:                                          ; preds = %_ZN6vectorIN7datalog13mk_magic_sets6a_flagELb0EjE9push_backEOS2_.exit, %entry
  ret void
}